; Function Attrs: mustprogress uwtable
define noundef zeroext i1 @_ZN3g2o7csparse7CSparse9factorizeEv(ptr noundef nonnull readonly align 8 captures(none) dereferenceable(8) %0) local_unnamed_addr #0 align 2 {
  %2 = load ptr, ptr %0, align 8, !tbaa !14
  %3 = getelementptr inbounds nuw i8, ptr %2, i64 8
  %4 = load i32, ptr %3, align 8, !tbaa !53
  %5 = getelementptr inbounds nuw i8, ptr %2, i64 48
  %6 = load i32, ptr %5, align 8, !tbaa !30
  %7 = icmp slt i32 %4, %6
  br i1 %7, label %8, label %_ZN3g2o7csparse7CSparse4Impl16prepareWorkspaceEv.exit

8:                                                ; preds = %1
  %9 = icmp ne i32 %4, 0
  %10 = zext i1 %9 to i32
  %11 = shl nsw i32 %6, %10
  store i32 %11, ptr %3, align 8, !tbaa !53
  %12 = getelementptr inbounds nuw i8, ptr %2, i64 16
  %13 = load ptr, ptr %12, align 8, !tbaa !54
  %14 = icmp eq ptr %13, null
  br i1 %14, label %16, label %15

15:                                               ; preds = %8
  tail call void @_ZdaPv(ptr noundef nonnull %13) #21
  %.pre.i = load i32, ptr %3, align 8, !tbaa !53
  br label %16

16:                                               ; preds = %15, %8
  %17 = phi i32 [ %.pre.i, %15 ], [ %11, %8 ]
  %18 = sext i32 %17 to i64
  %19 = icmp slt i32 %17, 0
  %20 = shl nsw i64 %18, 3
  %21 = select i1 %19, i64 -1, i64 %20
  %22 = tail call noalias noundef nonnull ptr @_Znam(i64 noundef %21) #19
  store ptr %22, ptr %12, align 8, !tbaa !54
  %23 = getelementptr inbounds nuw i8, ptr %2, i64 24
  %24 = load ptr, ptr %23, align 8, !tbaa !55
  %25 = icmp eq ptr %24, null
  br i1 %25, label %27, label %26

26:                                               ; preds = %16
  tail call void @_ZdaPv(ptr noundef nonnull %24) #21
  %.pre4.i = load i32, ptr %3, align 8, !tbaa !53
  br label %27

27:                                               ; preds = %26, %16
  %28 = phi i32 [ %.pre4.i, %26 ], [ %17, %16 ]
  %29 = shl nsw i32 %28, 1
  %30 = sext i32 %29 to i64
  %31 = icmp slt i32 %28, 0
  %32 = shl nsw i64 %30, 2
  %33 = select i1 %31, i64 -1, i64 %32
  %34 = tail call noalias noundef nonnull ptr @_Znam(i64 noundef %33) #19
  store ptr %34, ptr %23, align 8, !tbaa !55
  %.pre = load ptr, ptr %0, align 8, !tbaa !14
  br label %_ZN3g2o7csparse7CSparse4Impl16prepareWorkspaceEv.exit

_ZN3g2o7csparse7CSparse4Impl16prepareWorkspaceEv.exit: ; preds = %1, %27
  %35 = phi ptr [ %2, %1 ], [ %.pre, %27 ]
  %36 = getelementptr inbounds nuw i8, ptr %35, i64 32
  %37 = load ptr, ptr %36, align 8, !tbaa !16
  %.not.i = icmp eq ptr %37, null
  br i1 %.not.i, label %_ZN3g2o7csparse7CSparse10freeFactorEv.exit, label %38

38:                                               ; preds = %_ZN3g2o7csparse7CSparse4Impl16prepareWorkspaceEv.exit
  %39 = tail call ptr @cs_di_nfree(ptr noundef nonnull %37)
  %40 = load ptr, ptr %0, align 8, !tbaa !14
  %41 = getelementptr inbounds nuw i8, ptr %40, i64 32
  store ptr null, ptr %41, align 8, !tbaa !16
  br label %_ZN3g2o7csparse7CSparse10freeFactorEv.exit

_ZN3g2o7csparse7CSparse10freeFactorEv.exit:       ; preds = %_ZN3g2o7csparse7CSparse4Impl16prepareWorkspaceEv.exit, %38
  %42 = phi ptr [ %35, %_ZN3g2o7csparse7CSparse4Impl16prepareWorkspaceEv.exit ], [ %40, %38 ]
  %43 = getelementptr inbounds nuw i8, ptr %42, i64 40
  %44 = load ptr, ptr %42, align 8, !tbaa !52
  %45 = getelementptr inbounds nuw i8, ptr %42, i64 24
  %46 = load ptr, ptr %45, align 8, !tbaa !55
  %47 = getelementptr inbounds nuw i8, ptr %42, i64 16
  %48 = load ptr, ptr %47, align 8, !tbaa !54
  %49 = tail call noundef ptr @_ZN3g2o17csparse_extension17cs_chol_workspaceEPK12cs_di_sparsePK14cs_di_symbolicPiPd(ptr noundef nonnull %43, ptr noundef %44, ptr noundef %46, ptr noundef %48)
  %50 = load ptr, ptr %0, align 8, !tbaa !14
  %51 = getelementptr inbounds nuw i8, ptr %50, i64 32
  store ptr %49, ptr %51, align 8, !tbaa !16
  %52 = icmp ne ptr %49, null
  ret i1 %52
}